target datalayout = "e-m:e-p270:32:32-p271:32:32-p272:64:64-i64:64-i128:128-f80:128-n8:16:32:64-S128"
target triple = "x86_64-pc-linux-gnu"

%struct.pmix_mca_base_framework_t = type { ptr, ptr, ptr, ptr, ptr, ptr, i32, i32, ptr, ptr, i32, i32, %struct.pmix_list_t, %struct.pmix_list_t }
%struct.pmix_list_t = type { %struct.pmix_object_t, %struct.pmix_list_item_t, i64 }
%struct.pmix_object_t = type { %union.pthread_mutex_t, ptr, i32, %struct.pmix_tma }
%union.pthread_mutex_t = type { %struct.__pthread_mutex_s }
%struct.__pthread_mutex_s = type { i32, i32, i32, i32, i32, i16, i16, %struct.__pthread_internal_list }
%struct.__pthread_internal_list = type { ptr, ptr }
%struct.pmix_tma = type { ptr, ptr, ptr, ptr, ptr, ptr, ptr, ptr }
%struct.pmix_list_item_t = type { %struct.pmix_object_t, ptr, ptr, i32 }

; Function Attrs: nounwind uwtable
define internal void @framework_open_output(ptr noundef %0) #0 {
  %2 = alloca ptr, align 8
  store ptr %0, ptr %2, align 8, !tbaa !3
  %3 = load ptr, ptr %2, align 8, !tbaa !3
  %4 = getelementptr inbounds nuw %struct.pmix_mca_base_framework_t, ptr %3, i32 0, i32 10
  %5 = load i32, ptr %4, align 8, !tbaa !30
  %6 = icmp slt i32 0, %5
  br i1 %6, label %7, label %23

7:                                                ; preds = %1
  %8 = load ptr, ptr %2, align 8, !tbaa !3
  %9 = getelementptr inbounds nuw %struct.pmix_mca_base_framework_t, ptr %8, i32 0, i32 11
  %10 = load i32, ptr %9, align 4, !tbaa !49
  %11 = icmp eq i32 -1, %10
  br i1 %11, label %12, label %16

12:                                               ; preds = %7
  %13 = call i32 @pmix_output_open(ptr noundef null)
  %14 = load ptr, ptr %2, align 8, !tbaa !3
  %15 = getelementptr inbounds nuw %struct.pmix_mca_base_framework_t, ptr %14, i32 0, i32 11
  store i32 %13, ptr %15, align 4, !tbaa !49
  br label %16

16:                                               ; preds = %12, %7
  %17 = load ptr, ptr %2, align 8, !tbaa !3
  %18 = getelementptr inbounds nuw %struct.pmix_mca_base_framework_t, ptr %17, i32 0, i32 11
  %19 = load i32, ptr %18, align 4, !tbaa !49
  %20 = load ptr, ptr %2, align 8, !tbaa !3
  %21 = getelementptr inbounds nuw %struct.pmix_mca_base_framework_t, ptr %20, i32 0, i32 10
  %22 = load i32, ptr %21, align 8, !tbaa !30
  call void @pmix_output_set_verbosity(i32 noundef %19, i32 noundef %22)
  br label %35

23:                                               ; preds = %1
  %24 = load ptr, ptr %2, align 8, !tbaa !3
  %25 = getelementptr inbounds nuw %struct.pmix_mca_base_framework_t, ptr %24, i32 0, i32 11
  %26 = load i32, ptr %25, align 4, !tbaa !49
  %27 = icmp ne i32 -1, %26
  br i1 %27, label %28, label %34

28:                                               ; preds = %23
  %29 = load ptr, ptr %2, align 8, !tbaa !3
  %30 = getelementptr inbounds nuw %struct.pmix_mca_base_framework_t, ptr %29, i32 0, i32 11
  %31 = load i32, ptr %30, align 4, !tbaa !49
  call void @pmix_output_close(i32 noundef %31)
  %32 = load ptr, ptr %2, align 8, !tbaa !3
  %33 = getelementptr inbounds nuw %struct.pmix_mca_base_framework_t, ptr %32, i32 0, i32 11
  store i32 -1, ptr %33, align 4, !tbaa !49
  br label %34

34:                                               ; preds = %28, %23
  br label %35

35:                                               ; preds = %34, %16
  ret void
}

; Function Attrs: nounwind uwtable
define zeroext i1 @pmix_mca_base_framework_is_open(ptr noundef %0) #0 {
  %2 = alloca ptr, align 8
  store ptr %0, ptr %2, align 8, !tbaa !3
  %3 = load ptr, ptr %2, align 8, !tbaa !3
  %4 = getelementptr inbounds nuw %struct.pmix_mca_base_framework_t, ptr %3, i32 0, i32 6
  %5 = load i32, ptr %4, align 8, !tbaa !8
  %6 = and i32 %5, 8
  %7 = icmp ne i32 %6, 0
  %8 = xor i1 %7, true
  %9 = xor i1 %8, true
  ret i1 %9
}

; Function Attrs: nounwind uwtable
define i32 @pmix_mca_base_framework_open(ptr noundef %0, i32 noundef %1) #0 {
  %3 = alloca i32, align 4
  %4 = alloca ptr, align 8
  %5 = alloca i32, align 4
  %6 = alloca i32, align 4
  %7 = alloca i32, align 4
  store ptr %0, ptr %4, align 8, !tbaa !3
  store i32 %1, ptr %5, align 4, !tbaa !20
  call void @llvm.lifetime.start.p0(i64 4, ptr %6) #9
  %8 = load ptr, ptr %4, align 8, !tbaa !3
  %9 = call i32 @pmix_mca_base_framework_register(ptr noundef %8, i32 noundef 0)
  store i32 %9, ptr %6, align 4, !tbaa !20
  %10 = load i32, ptr %6, align 4, !tbaa !20
  %11 = icmp ne i32 0, %10
  br i1 %11, label %12, label %14

12:                                               ; preds = %2
  %13 = load i32, ptr %6, align 4, !tbaa !20
  store i32 %13, ptr %3, align 4
  store i32 1, ptr %7, align 4
  br label %67

14:                                               ; preds = %2
  %15 = load ptr, ptr %4, align 8, !tbaa !3
  %16 = call zeroext i1 @pmix_mca_base_framework_is_open(ptr noundef %15)
  br i1 %16, label %17, label %18

17:                                               ; preds = %14
  store i32 0, ptr %3, align 4
  store i32 1, ptr %7, align 4
  br label %67

18:                                               ; preds = %14
  %19 = load ptr, ptr %4, align 8, !tbaa !3
  %20 = getelementptr inbounds nuw %struct.pmix_mca_base_framework_t, ptr %19, i32 0, i32 6
  %21 = load i32, ptr %20, align 8, !tbaa !8
  %22 = and i32 1, %21
  %23 = icmp ne i32 %22, 0
  br i1 %23, label %24, label %36

24:                                               ; preds = %18
  %25 = load i32, ptr %5, align 4, !tbaa !20
  %26 = or i32 %25, 1
  store i32 %26, ptr %5, align 4, !tbaa !20
  %27 = load ptr, ptr %4, align 8, !tbaa !3
  %28 = getelementptr inbounds nuw %struct.pmix_mca_base_framework_t, ptr %27, i32 0, i32 6
  %29 = load i32, ptr %28, align 8, !tbaa !8
  %30 = and i32 4, %29
  %31 = icmp ne i32 %30, 0
  br i1 %31, label %32, label %35

32:                                               ; preds = %24
  %33 = load i32, ptr %5, align 4, !tbaa !20
  %34 = or i32 %33, 2
  store i32 %34, ptr %5, align 4, !tbaa !20
  br label %35

35:                                               ; preds = %32, %24
  br label %36

36:                                               ; preds = %35, %18
  %37 = load ptr, ptr %4, align 8, !tbaa !3
  call void @framework_open_output(ptr noundef %37)
  %38 = load ptr, ptr %4, align 8, !tbaa !3
  %39 = getelementptr inbounds nuw %struct.pmix_mca_base_framework_t, ptr %38, i32 0, i32 4
  %40 = load ptr, ptr %39, align 8, !tbaa !50
  %41 = icmp ne ptr null, %40
  br i1 %41, label %42, label %48

42:                                               ; preds = %36
  %43 = load ptr, ptr %4, align 8, !tbaa !3
  %44 = getelementptr inbounds nuw %struct.pmix_mca_base_framework_t, ptr %43, i32 0, i32 4
  %45 = load ptr, ptr %44, align 8, !tbaa !50
  %46 = load i32, ptr %5, align 4, !tbaa !20
  %47 = call i32 %45(i32 noundef %46)
  store i32 %47, ptr %6, align 4, !tbaa !20
  br label %52

48:                                               ; preds = %36
  %49 = load ptr, ptr %4, align 8, !tbaa !3
  %50 = load i32, ptr %5, align 4, !tbaa !20
  %51 = call i32 @pmix_mca_base_framework_components_open(ptr noundef %49, i32 noundef %50)
  store i32 %51, ptr %6, align 4, !tbaa !20
  br label %52

52:                                               ; preds = %48, %42
  %53 = load i32, ptr %6, align 4, !tbaa !20
  %54 = icmp ne i32 0, %53
  br i1 %54, label %55, label %60

55:                                               ; preds = %52
  %56 = load ptr, ptr %4, align 8, !tbaa !3
  %57 = getelementptr inbounds nuw %struct.pmix_mca_base_framework_t, ptr %56, i32 0, i32 7
  %58 = load i32, ptr %57, align 4, !tbaa !21
  %59 = add nsw i32 %58, -1
  store i32 %59, ptr %57, align 4, !tbaa !21
  br label %65

60:                                               ; preds = %52
  %61 = load ptr, ptr %4, align 8, !tbaa !3
  %62 = getelementptr inbounds nuw %struct.pmix_mca_base_framework_t, ptr %61, i32 0, i32 6
  %63 = load i32, ptr %62, align 8, !tbaa !8
  %64 = or i32 %63, 8
  store i32 %64, ptr %62, align 8, !tbaa !8
  br label %65

65:                                               ; preds = %60, %55
  %66 = load i32, ptr %6, align 4, !tbaa !20
  store i32 %66, ptr %3, align 4
  store i32 1, ptr %7, align 4
  br label %67

67:                                               ; preds = %65, %17, %12
  call void @llvm.lifetime.end.p0(i64 4, ptr %6) #9
  %68 = load i32, ptr %3, align 4
  ret i32 %68
}