; Function Attrs: nounwind uwtable
define i32 @pmix_mca_base_framework_open(ptr noundef %0, i32 noundef %1) local_unnamed_addr #1 {
  %3 = tail call i32 @pmix_mca_base_framework_register(ptr noundef %0, i32 noundef 0)
  %.not = icmp eq i32 %3, 0
  br i1 %.not, label %4, label %39

4:                                                ; preds = %2
  %5 = getelementptr inbounds nuw i8, ptr %0, i64 48
  %6 = load i32, ptr %5, align 8, !tbaa !3
  %7 = and i32 %6, 8
  %.not26 = icmp eq i32 %7, 0
  br i1 %.not26, label %8, label %39

8:                                                ; preds = %4
  %9 = and i32 %6, 1
  %.not22 = icmp eq i32 %9, 0
  %10 = and i32 %6, 4
  %.not23 = icmp eq i32 %10, 0
  %spec.select.v = select i1 %.not23, i32 1, i32 3
  %spec.select = select i1 %.not22, i32 0, i32 %spec.select.v
  %.018 = or i32 %1, %spec.select
  %11 = getelementptr inbounds nuw i8, ptr %0, i64 72
  %12 = load i32, ptr %11, align 8, !tbaa !32
  %13 = icmp sgt i32 %12, 0
  %14 = getelementptr inbounds nuw i8, ptr %0, i64 76
  %15 = load i32, ptr %14, align 4, !tbaa !33
  %16 = icmp eq i32 %15, -1
  br i1 %13, label %17, label %23

17:                                               ; preds = %8
  br i1 %16, label %18, label %20

18:                                               ; preds = %17
  %19 = tail call i32 @pmix_output_open(ptr noundef null) #10
  store i32 %19, ptr %14, align 4, !tbaa !33
  %.pre.i = load i32, ptr %11, align 8, !tbaa !32
  br label %20

20:                                               ; preds = %18, %17
  %21 = phi i32 [ %.pre.i, %18 ], [ %12, %17 ]
  %22 = phi i32 [ %19, %18 ], [ %15, %17 ]
  tail call void @pmix_output_set_verbosity(i32 noundef %22, i32 noundef %21) #10
  br label %framework_open_output.exit

23:                                               ; preds = %8
  br i1 %16, label %framework_open_output.exit, label %24

24:                                               ; preds = %23
  tail call void @pmix_output_close(i32 noundef %15) #10
  store i32 -1, ptr %14, align 4, !tbaa !33
  br label %framework_open_output.exit

framework_open_output.exit:                       ; preds = %20, %23, %24
  %25 = getelementptr inbounds nuw i8, ptr %0, i64 32
  %26 = load ptr, ptr %25, align 8, !tbaa !35
  %.not24 = icmp eq ptr %26, null
  br i1 %.not24, label %29, label %27

27:                                               ; preds = %framework_open_output.exit
  %28 = tail call i32 %26(i32 noundef %.018) #10
  br label %31

29:                                               ; preds = %framework_open_output.exit
  %30 = tail call i32 @pmix_mca_base_framework_components_open(ptr noundef nonnull %0, i32 noundef %.018) #10
  br label %31

31:                                               ; preds = %29, %27
  %.0 = phi i32 [ %28, %27 ], [ %30, %29 ]
  %.not25 = icmp eq i32 %.0, 0
  br i1 %.not25, label %36, label %32

32:                                               ; preds = %31
  %33 = getelementptr inbounds nuw i8, ptr %0, i64 52
  %34 = load i32, ptr %33, align 4, !tbaa !18
  %35 = add nsw i32 %34, -1
  store i32 %35, ptr %33, align 4, !tbaa !18
  br label %39

36:                                               ; preds = %31
  %37 = load i32, ptr %5, align 8, !tbaa !3
  %38 = or i32 %37, 8
  store i32 %38, ptr %5, align 8, !tbaa !3
  br label %39

39:                                               ; preds = %32, %36, %4, %2
  %.019 = phi i32 [ %3, %2 ], [ 0, %4 ], [ 0, %36 ], [ %.0, %32 ]
  ret i32 %.019
}